; Function Attrs: mustprogress uwtable
define internal void @_ZN12_GLOBAL__N_155HyperscanArgChecks_multicompile_nomix_highlander_2_Test8TestBodyEv(ptr nonnull readnone align 8 captures(none) %0) unnamed_addr #7 align 2 personality ptr @__gxx_personality_v0 {
  %2 = alloca ptr, align 8
  %3 = alloca ptr, align 8
  %4 = alloca [2 x ptr], align 16
  %5 = alloca [2 x i32], align 8
  %6 = alloca [2 x i32], align 8
  %7 = alloca i32, align 4
  %8 = alloca %"class.testing::AssertionResult", align 8
  %9 = alloca i32, align 4
  %10 = alloca %"class.testing::Message", align 8
  %11 = alloca %"class.testing::internal::AssertHelper", align 8
  call void @llvm.lifetime.start.p0(i64 8, ptr nonnull %2) #27
  store ptr null, ptr %2, align 8
  call void @llvm.lifetime.start.p0(i64 8, ptr nonnull %3) #27
  store ptr null, ptr %3, align 8
  call void @llvm.lifetime.start.p0(i64 16, ptr nonnull %4) #27
  call void @llvm.memcpy.p0.p0.i64(ptr noundef nonnull align 16 dereferenceable(16) %4, ptr noundef nonnull align 16 dereferenceable(16) @__const._ZN12_GLOBAL__N_155HyperscanArgChecks_multicompile_nomix_highlander_2_Test8TestBodyEv.expr, i64 16, i1 false)
  call void @llvm.lifetime.start.p0(i64 8, ptr nonnull %5) #27
  store i64 0, ptr %5, align 8
  call void @llvm.lifetime.start.p0(i64 8, ptr nonnull %6) #27
  store i64 128849018910, ptr %6, align 8
  call void @llvm.lifetime.start.p0(i64 4, ptr nonnull %7) #27
  %12 = call i32 @hs_compile_multi(ptr noundef nonnull %4, ptr noundef nonnull %5, ptr noundef nonnull %6, i32 noundef 2, i32 noundef 1, ptr noundef null, ptr noundef nonnull %2, ptr noundef nonnull %3)
  store i32 %12, ptr %7, align 4
  call void @llvm.lifetime.start.p0(i64 16, ptr nonnull %8) #27
  call void @llvm.lifetime.start.p0(i64 4, ptr nonnull %9) #27
  store i32 0, ptr %9, align 4
  call void @_ZN7testing8internal11CmpHelperEQIiiEENS_15AssertionResultEPKcS4_RKT_RKT0_(ptr dead_on_unwind nonnull writable sret(%"class.testing::AssertionResult") align 8 %8, ptr noundef nonnull @.str.287, ptr noundef nonnull @.str.302, ptr noundef nonnull align 4 dereferenceable(4) %9, ptr noundef nonnull align 4 dereferenceable(4) %7)
  call void @llvm.lifetime.end.p0(i64 4, ptr nonnull %9) #27
  %13 = load i8, ptr %8, align 8, !range !14, !noundef !15
  %14 = trunc nuw i8 %13 to i1
  br i1 %14, label %.critedge, label %15

15:                                               ; preds = %1
  call void @llvm.lifetime.start.p0(i64 8, ptr nonnull %10) #27
  invoke void @_ZN7testing7MessageC1Ev(ptr noundef nonnull align 8 dereferenceable(8) %10)
          to label %16 unwind label %53

16:                                               ; preds = %15
  call void @llvm.lifetime.start.p0(i64 8, ptr nonnull %11) #27
  %17 = getelementptr inbounds nuw i8, ptr %8, i64 8
  %18 = load ptr, ptr %17, align 8
  %.not.i.i = icmp eq ptr %18, null
  br i1 %.not.i.i, label %_ZNK7testing15AssertionResult15failure_messageEv.exit, label %19

19:                                               ; preds = %16
  %20 = load ptr, ptr %18, align 8
  br label %_ZNK7testing15AssertionResult15failure_messageEv.exit

_ZNK7testing15AssertionResult15failure_messageEv.exit: ; preds = %19, %16
  %21 = phi ptr [ %20, %19 ], [ @.str.292, %16 ]
  invoke void @_ZN7testing8internal12AssertHelperC1ENS_14TestPartResult4TypeEPKciS5_(ptr noundef nonnull align 8 dereferenceable(8) %11, i32 noundef 2, ptr noundef nonnull @.str.286, i32 noundef 2320, ptr noundef %21)
          to label %22 unwind label %55

22:                                               ; preds = %_ZNK7testing15AssertionResult15failure_messageEv.exit
  invoke void @_ZNK7testing8internal12AssertHelperaSERKNS_7MessageE(ptr noundef nonnull align 8 dereferenceable(8) %11, ptr noundef nonnull align 8 dereferenceable(8) %10)
          to label %23 unwind label %57

23:                                               ; preds = %22
  call void @_ZN7testing8internal12AssertHelperD1Ev(ptr noundef nonnull align 8 dereferenceable(8) %11) #27
  call void @llvm.lifetime.end.p0(i64 8, ptr nonnull %11) #27
  %24 = load ptr, ptr %10, align 8
  %.not.i.i.i = icmp eq ptr %24, null
  br i1 %.not.i.i.i, label %_ZN7testing7MessageD2Ev.exit, label %25

25:                                               ; preds = %23
  %26 = invoke noundef zeroext i1 @_ZN7testing8internal6IsTrueEb(i1 noundef zeroext true)
          to label %.noexc.i.i unwind label %34

.noexc.i.i:                                       ; preds = %25
  br i1 %26, label %27, label %_ZN7testing7MessageD2Ev.exit

27:                                               ; preds = %.noexc.i.i
  %28 = load ptr, ptr %10, align 8
  %29 = icmp eq ptr %28, null
  br i1 %29, label %_ZN7testing7MessageD2Ev.exit, label %30

30:                                               ; preds = %27
  %31 = load ptr, ptr %28, align 8
  %32 = getelementptr inbounds nuw i8, ptr %31, i64 8
  %33 = load ptr, ptr %32, align 8
  call void %33(ptr noundef nonnull align 8 dereferenceable(128) %28) #27
  br label %_ZN7testing7MessageD2Ev.exit

34:                                               ; preds = %25
  %35 = landingpad { ptr, i32 }
          catch ptr null
  %36 = extractvalue { ptr, i32 } %35, 0
  call void @__clang_call_terminate(ptr %36) #28
  unreachable

_ZN7testing7MessageD2Ev.exit:                     ; preds = %.noexc.i.i, %27, %30, %23
  call void @llvm.lifetime.end.p0(i64 8, ptr nonnull %10) #27
  %37 = load ptr, ptr %17, align 8
  %.not.i.i.i7 = icmp eq ptr %37, null
  br i1 %.not.i.i.i7, label %_ZN7testing15AssertionResultD2Ev.exit, label %38

38:                                               ; preds = %_ZN7testing7MessageD2Ev.exit
  %39 = invoke noundef zeroext i1 @_ZN7testing8internal6IsTrueEb(i1 noundef zeroext true)
          to label %.noexc.i.i8 unwind label %50

.noexc.i.i8:                                      ; preds = %38
  br i1 %39, label %40, label %_ZN7testing15AssertionResultD2Ev.exit

40:                                               ; preds = %.noexc.i.i8
  %41 = load ptr, ptr %17, align 8
  %42 = icmp eq ptr %41, null
  br i1 %42, label %_ZN7testing15AssertionResultD2Ev.exit, label %43

43:                                               ; preds = %40
  %44 = load ptr, ptr %41, align 8
  %45 = getelementptr inbounds nuw i8, ptr %41, i64 16
  %46 = icmp eq ptr %44, %45
  br i1 %46, label %_ZNKSt7__cxx1112basic_stringIcSt11char_traitsIcESaIcEE11_M_is_localEv.exit.thread.i.i.i.i.i, label %_ZNKSt7__cxx1112basic_stringIcSt11char_traitsIcESaIcEE11_M_is_localEv.exit.i.i.i.i.i

_ZNKSt7__cxx1112basic_stringIcSt11char_traitsIcESaIcEE11_M_is_localEv.exit.thread.i.i.i.i.i: ; preds = %43
  %47 = getelementptr inbounds nuw i8, ptr %41, i64 8
  %48 = load i64, ptr %47, align 8
  %49 = icmp ult i64 %48, 16
  call void @llvm.assume(i1 %49)
  br label %_ZNSt7__cxx1112basic_stringIcSt11char_traitsIcESaIcEED2Ev.exit.i.i.i

_ZNKSt7__cxx1112basic_stringIcSt11char_traitsIcESaIcEE11_M_is_localEv.exit.i.i.i.i.i: ; preds = %43
  call void @_ZdlPv(ptr noundef %44) #31
  br label %_ZNSt7__cxx1112basic_stringIcSt11char_traitsIcESaIcEED2Ev.exit.i.i.i

_ZNSt7__cxx1112basic_stringIcSt11char_traitsIcESaIcEED2Ev.exit.i.i.i: ; preds = %_ZNKSt7__cxx1112basic_stringIcSt11char_traitsIcESaIcEE11_M_is_localEv.exit.i.i.i.i.i, %_ZNKSt7__cxx1112basic_stringIcSt11char_traitsIcESaIcEE11_M_is_localEv.exit.thread.i.i.i.i.i
  call void @_ZdlPv(ptr noundef nonnull %41) #31
  br label %_ZN7testing15AssertionResultD2Ev.exit

50:                                               ; preds = %38
  %51 = landingpad { ptr, i32 }
          catch ptr null
  %52 = extractvalue { ptr, i32 } %51, 0
  call void @__clang_call_terminate(ptr %52) #28
  unreachable

_ZN7testing15AssertionResultD2Ev.exit:            ; preds = %.noexc.i.i8, %40, %_ZNSt7__cxx1112basic_stringIcSt11char_traitsIcESaIcEED2Ev.exit.i.i.i, %_ZN7testing7MessageD2Ev.exit
  call void @llvm.lifetime.end.p0(i64 16, ptr nonnull %8) #27
  br label %81

53:                                               ; preds = %15
  %54 = landingpad { ptr, i32 }
          cleanup
  br label %60

55:                                               ; preds = %_ZNK7testing15AssertionResult15failure_messageEv.exit
  %56 = landingpad { ptr, i32 }
          cleanup
  br label %59

57:                                               ; preds = %22
  %58 = landingpad { ptr, i32 }
          cleanup
  call void @_ZN7testing8internal12AssertHelperD1Ev(ptr noundef nonnull align 8 dereferenceable(8) %11) #27
  br label %59

59:                                               ; preds = %57, %55
  %.pn = phi { ptr, i32 } [ %58, %57 ], [ %56, %55 ]
  call void @llvm.lifetime.end.p0(i64 8, ptr nonnull %11) #27
  call void @_ZN7testing7MessageD2Ev(ptr noundef nonnull align 8 dereferenceable(8) %10) #27
  br label %60

60:                                               ; preds = %59, %53
  %.pn.pn = phi { ptr, i32 } [ %.pn, %59 ], [ %54, %53 ]
  call void @llvm.lifetime.end.p0(i64 8, ptr nonnull %10) #27
  call void @_ZN7testing15AssertionResultD2Ev(ptr noundef nonnull align 8 dereferenceable(16) %8) #27
  call void @llvm.lifetime.end.p0(i64 16, ptr nonnull %8) #27
  call void @llvm.lifetime.end.p0(i64 4, ptr nonnull %7) #27
  call void @llvm.lifetime.end.p0(i64 8, ptr nonnull %6) #27
  call void @llvm.lifetime.end.p0(i64 8, ptr nonnull %5) #27
  call void @llvm.lifetime.end.p0(i64 16, ptr nonnull %4) #27
  call void @llvm.lifetime.end.p0(i64 8, ptr nonnull %3) #27
  call void @llvm.lifetime.end.p0(i64 8, ptr nonnull %2) #27
  resume { ptr, i32 } %.pn.pn

.critedge:                                        ; preds = %1
  %61 = getelementptr inbounds nuw i8, ptr %8, i64 8
  %62 = load ptr, ptr %61, align 8
  %.not.i.i.i9 = icmp eq ptr %62, null
  br i1 %.not.i.i.i9, label %78, label %63

63:                                               ; preds = %.critedge
  %64 = invoke noundef zeroext i1 @_ZN7testing8internal6IsTrueEb(i1 noundef zeroext true)
          to label %.noexc.i.i10 unwind label %75

.noexc.i.i10:                                     ; preds = %63
  br i1 %64, label %65, label %78

65:                                               ; preds = %.noexc.i.i10
  %66 = load ptr, ptr %61, align 8
  %67 = icmp eq ptr %66, null
  br i1 %67, label %78, label %68

68:                                               ; preds = %65
  %69 = load ptr, ptr %66, align 8
  %70 = getelementptr inbounds nuw i8, ptr %66, i64 16
  %71 = icmp eq ptr %69, %70
  br i1 %71, label %_ZNKSt7__cxx1112basic_stringIcSt11char_traitsIcESaIcEE11_M_is_localEv.exit.thread.i.i.i.i.i13, label %_ZNKSt7__cxx1112basic_stringIcSt11char_traitsIcESaIcEE11_M_is_localEv.exit.i.i.i.i.i11

_ZNKSt7__cxx1112basic_stringIcSt11char_traitsIcESaIcEE11_M_is_localEv.exit.thread.i.i.i.i.i13: ; preds = %68
  %72 = getelementptr inbounds nuw i8, ptr %66, i64 8
  %73 = load i64, ptr %72, align 8
  %74 = icmp ult i64 %73, 16
  call void @llvm.assume(i1 %74)
  br label %_ZNSt7__cxx1112basic_stringIcSt11char_traitsIcESaIcEED2Ev.exit.i.i.i12

_ZNKSt7__cxx1112basic_stringIcSt11char_traitsIcESaIcEE11_M_is_localEv.exit.i.i.i.i.i11: ; preds = %68
  call void @_ZdlPv(ptr noundef %69) #31
  br label %_ZNSt7__cxx1112basic_stringIcSt11char_traitsIcESaIcEED2Ev.exit.i.i.i12

_ZNSt7__cxx1112basic_stringIcSt11char_traitsIcESaIcEED2Ev.exit.i.i.i12: ; preds = %_ZNKSt7__cxx1112basic_stringIcSt11char_traitsIcESaIcEE11_M_is_localEv.exit.i.i.i.i.i11, %_ZNKSt7__cxx1112basic_stringIcSt11char_traitsIcESaIcEE11_M_is_localEv.exit.thread.i.i.i.i.i13
  call void @_ZdlPv(ptr noundef nonnull %66) #31
  br label %78

75:                                               ; preds = %63
  %76 = landingpad { ptr, i32 }
          catch ptr null
  %77 = extractvalue { ptr, i32 } %76, 0
  call void @__clang_call_terminate(ptr %77) #28
  unreachable

78:                                               ; preds = %.noexc.i.i10, %65, %_ZNSt7__cxx1112basic_stringIcSt11char_traitsIcESaIcEED2Ev.exit.i.i.i12, %.critedge
  call void @llvm.lifetime.end.p0(i64 16, ptr nonnull %8) #27
  %79 = load ptr, ptr %2, align 8
  %80 = call i32 @hs_free_database(ptr noundef %79)
  br label %81

81:                                               ; preds = %_ZN7testing15AssertionResultD2Ev.exit, %78
  call void @llvm.lifetime.end.p0(i64 4, ptr nonnull %7) #27
  call void @llvm.lifetime.end.p0(i64 8, ptr nonnull %6) #27
  call void @llvm.lifetime.end.p0(i64 8, ptr nonnull %5) #27
  call void @llvm.lifetime.end.p0(i64 16, ptr nonnull %4) #27
  call void @llvm.lifetime.end.p0(i64 8, ptr nonnull %3) #27
  call void @llvm.lifetime.end.p0(i64 8, ptr nonnull %2) #27
  ret void
}